target datalayout = "e-m:e-p270:32:32-p271:32:32-p272:64:64-i64:64-i128:128-f80:128-n8:16:32:64-S128"
target triple = "x86_64-pc-linux-gnu"

%struct.expert_field = type { i32, i32 }

@hf_uftp_encrypted = internal global i32 0, align 4
@hf_uftp_encrypted_ivctr = internal global i32 0, align 4
@hf_uftp_encrypted_reserved = internal global i32 0, align 4
@hf_uftp_encrypted_payload_len = internal global i32 0, align 4
@hf_uftp_encrypted_payload = internal global i32 0, align 4
@ett_uftp_encrypted = internal global i32 0, align 4
@ei_uftp_length_invalid = internal global %struct.expert_field zeroinitializer, align 4
@.str.416 = private unnamed_addr constant [19 x i8] c"Invalid length: %d\00", align 1
@.str.430 = private unnamed_addr constant [37 x i8] c"Invalid length, len = %d, payload=%d\00", align 1

; Function Attrs: null_pointer_is_valid sspstrong uwtable
define internal void @dissect_uftp_encrypted(ptr noundef %0, ptr noundef %1, ptr noundef %2) #0 {
  %4 = alloca ptr, align 8
  %5 = alloca ptr, align 8
  %6 = alloca ptr, align 8
  %7 = alloca ptr, align 8
  %8 = alloca ptr, align 8
  %9 = alloca i32, align 4
  %10 = alloca i16, align 2
  %11 = alloca i32, align 4
  store ptr %0, ptr %4, align 8
  store ptr %1, ptr %5, align 8
  store ptr %2, ptr %6, align 8
  call void @llvm.lifetime.start.p0(i64 8, ptr %7) #6
  store ptr null, ptr %7, align 8
  call void @llvm.lifetime.start.p0(i64 8, ptr %8) #6
  store ptr null, ptr %8, align 8
  call void @llvm.lifetime.start.p0(i64 4, ptr %9) #6
  store i32 0, ptr %9, align 4
  call void @llvm.lifetime.start.p0(i64 2, ptr %10) #6
  %12 = load ptr, ptr %4, align 8
  %13 = call i32 @tvb_reported_length(ptr noundef %12)
  %14 = icmp ult i32 %13, 12
  br i1 %14, label %15, label %23

15:                                               ; preds = %3
  %16 = load ptr, ptr %6, align 8
  %17 = load ptr, ptr %5, align 8
  %18 = load ptr, ptr %4, align 8
  %19 = load i32, ptr %9, align 4
  %20 = load ptr, ptr %4, align 8
  %21 = call i32 @tvb_reported_length(ptr noundef %20)
  %22 = call ptr (ptr, ptr, ptr, ptr, i32, i32, ptr, ...) @proto_tree_add_expert_format(ptr noundef %16, ptr noundef %17, ptr noundef @ei_uftp_length_invalid, ptr noundef %18, i32 noundef %19, i32 noundef -1, ptr noundef @.str.416, i32 noundef %21)
  store i32 1, ptr %11, align 4
  br label %79

23:                                               ; preds = %3
  %24 = load ptr, ptr %4, align 8
  %25 = call zeroext i16 @tvb_get_ntohs(ptr noundef %24, i32 noundef 10)
  store i16 %25, ptr %10, align 2
  %26 = load ptr, ptr %4, align 8
  %27 = call i32 @tvb_reported_length(ptr noundef %26)
  %28 = load i16, ptr %10, align 2
  %29 = zext i16 %28 to i32
  %30 = add i32 12, %29
  %31 = icmp slt i32 %27, %30
  br i1 %31, label %32, label %42

32:                                               ; preds = %23
  %33 = load ptr, ptr %6, align 8
  %34 = load ptr, ptr %5, align 8
  %35 = load ptr, ptr %4, align 8
  %36 = load i32, ptr %9, align 4
  %37 = load ptr, ptr %4, align 8
  %38 = call i32 @tvb_reported_length(ptr noundef %37)
  %39 = load i16, ptr %10, align 2
  %40 = zext i16 %39 to i32
  %41 = call ptr (ptr, ptr, ptr, ptr, i32, i32, ptr, ...) @proto_tree_add_expert_format(ptr noundef %33, ptr noundef %34, ptr noundef @ei_uftp_length_invalid, ptr noundef %35, i32 noundef %36, i32 noundef -1, ptr noundef @.str.430, i32 noundef %38, i32 noundef %40)
  store i32 1, ptr %11, align 4
  br label %79

42:                                               ; preds = %23
  %43 = load ptr, ptr %6, align 8
  %44 = load i32, ptr @hf_uftp_encrypted, align 4
  %45 = load ptr, ptr %4, align 8
  %46 = load i32, ptr %9, align 4
  %47 = call ptr @proto_tree_add_item(ptr noundef %43, i32 noundef %44, ptr noundef %45, i32 noundef %46, i32 noundef -1, i32 noundef 0)
  store ptr %47, ptr %7, align 8
  %48 = load ptr, ptr %7, align 8
  %49 = load i32, ptr @ett_uftp_encrypted, align 4
  %50 = call ptr @proto_item_add_subtree(ptr noundef %48, i32 noundef %49)
  store ptr %50, ptr %8, align 8
  %51 = load ptr, ptr %8, align 8
  %52 = load i32, ptr @hf_uftp_encrypted_ivctr, align 4
  %53 = load ptr, ptr %4, align 8
  %54 = load i32, ptr %9, align 4
  %55 = call ptr @proto_tree_add_item(ptr noundef %51, i32 noundef %52, ptr noundef %53, i32 noundef %54, i32 noundef 8, i32 noundef 0)
  %56 = load i32, ptr %9, align 4
  %57 = add i32 %56, 8
  store i32 %57, ptr %9, align 4
  %58 = load ptr, ptr %8, align 8
  %59 = load i32, ptr @hf_uftp_encrypted_reserved, align 4
  %60 = load ptr, ptr %4, align 8
  %61 = load i32, ptr %9, align 4
  %62 = call ptr @proto_tree_add_item(ptr noundef %58, i32 noundef %59, ptr noundef %60, i32 noundef %61, i32 noundef 2, i32 noundef 0)
  %63 = load i32, ptr %9, align 4
  %64 = add i32 %63, 2
  store i32 %64, ptr %9, align 4
  %65 = load ptr, ptr %8, align 8
  %66 = load i32, ptr @hf_uftp_encrypted_payload_len, align 4
  %67 = load ptr, ptr %4, align 8
  %68 = load i32, ptr %9, align 4
  %69 = call ptr @proto_tree_add_item(ptr noundef %65, i32 noundef %66, ptr noundef %67, i32 noundef %68, i32 noundef 2, i32 noundef 0)
  %70 = load i32, ptr %9, align 4
  %71 = add i32 %70, 2
  store i32 %71, ptr %9, align 4
  %72 = load ptr, ptr %8, align 8
  %73 = load i32, ptr @hf_uftp_encrypted_payload, align 4
  %74 = load ptr, ptr %4, align 8
  %75 = load i32, ptr %9, align 4
  %76 = load i16, ptr %10, align 2
  %77 = zext i16 %76 to i32
  %78 = call ptr @proto_tree_add_item(ptr noundef %72, i32 noundef %73, ptr noundef %74, i32 noundef %75, i32 noundef %77, i32 noundef 0)
  store i32 0, ptr %11, align 4
  br label %79

79:                                               ; preds = %42, %32, %15
  call void @llvm.lifetime.end.p0(i64 2, ptr %10) #6
  call void @llvm.lifetime.end.p0(i64 4, ptr %9) #6
  call void @llvm.lifetime.end.p0(i64 8, ptr %8) #6
  call void @llvm.lifetime.end.p0(i64 8, ptr %7) #6
  %80 = load i32, ptr %11, align 4
  switch i32 %80, label %82 [
    i32 0, label %81
    i32 1, label %81
  ]

81:                                               ; preds = %79, %79
  ret void

82:                                               ; preds = %79
  unreachable
}