; Function Attrs: null_pointer_is_valid sspstrong uwtable
define internal fastcc void @dissect_uftp_encrypted(ptr noundef %0, ptr noundef %1, ptr noundef %2) unnamed_addr #0 {
  %4 = tail call i32 @tvb_reported_length(ptr noundef %0)
  %5 = icmp ult i32 %4, 12
  br i1 %5, label %6, label %9

6:                                                ; preds = %3
  %7 = tail call i32 @tvb_reported_length(ptr noundef %0)
  %8 = tail call ptr (ptr, ptr, ptr, ptr, i32, i32, ptr, ...) @proto_tree_add_expert_format(ptr noundef %2, ptr noundef %1, ptr noundef nonnull @ei_uftp_length_invalid, ptr noundef %0, i32 noundef 0, i32 noundef -1, ptr noundef nonnull @.str.416, i32 noundef %7)
  br label %31

9:                                                ; preds = %3
  %10 = tail call zeroext i16 @tvb_get_ntohs(ptr noundef %0, i32 noundef 10)
  %11 = tail call i32 @tvb_reported_length(ptr noundef %0)
  %12 = zext i16 %10 to i32
  %13 = add nuw nsw i32 %12, 12
  %14 = icmp slt i32 %11, %13
  br i1 %14, label %15, label %18

15:                                               ; preds = %9
  %16 = tail call i32 @tvb_reported_length(ptr noundef %0)
  %17 = tail call ptr (ptr, ptr, ptr, ptr, i32, i32, ptr, ...) @proto_tree_add_expert_format(ptr noundef %2, ptr noundef %1, ptr noundef nonnull @ei_uftp_length_invalid, ptr noundef %0, i32 noundef 0, i32 noundef -1, ptr noundef nonnull @.str.430, i32 noundef %16, i32 noundef %12)
  br label %31

18:                                               ; preds = %9
  %19 = load i32, ptr @hf_uftp_encrypted, align 4
  %20 = tail call ptr @proto_tree_add_item(ptr noundef %2, i32 noundef %19, ptr noundef %0, i32 noundef 0, i32 noundef -1, i32 noundef 0)
  %21 = load i32, ptr @ett_uftp_encrypted, align 4
  %22 = tail call ptr @proto_item_add_subtree(ptr noundef %20, i32 noundef %21)
  %23 = load i32, ptr @hf_uftp_encrypted_ivctr, align 4
  %24 = tail call ptr @proto_tree_add_item(ptr noundef %22, i32 noundef %23, ptr noundef %0, i32 noundef 0, i32 noundef 8, i32 noundef 0)
  %25 = load i32, ptr @hf_uftp_encrypted_reserved, align 4
  %26 = tail call ptr @proto_tree_add_item(ptr noundef %22, i32 noundef %25, ptr noundef %0, i32 noundef 8, i32 noundef 2, i32 noundef 0)
  %27 = load i32, ptr @hf_uftp_encrypted_payload_len, align 4
  %28 = tail call ptr @proto_tree_add_item(ptr noundef %22, i32 noundef %27, ptr noundef %0, i32 noundef 10, i32 noundef 2, i32 noundef 0)
  %29 = load i32, ptr @hf_uftp_encrypted_payload, align 4
  %30 = tail call ptr @proto_tree_add_item(ptr noundef %22, i32 noundef %29, ptr noundef %0, i32 noundef 12, i32 noundef %12, i32 noundef 0)
  br label %31

31:                                               ; preds = %18, %15, %6
  ret void
}